; ModuleID = '29/1823.c'
source_filename = "29/1823.c"
target datalayout = "e-m:e-p270:32:32-p271:32:32-p272:64:64-i64:64-f80:128-n8:16:32:64-S128"
target triple = "x86_64-pc-linux-gnu"

@.str = private unnamed_addr constant [4 x i8] c"%d\0A\00", align 1
@.str.1 = private unnamed_addr constant [3 x i8] c"%d\00", align 1
@.str.2 = private unnamed_addr constant [6 x i8] c"%.3f\0A\00", align 1

; Function Attrs: noinline nounwind uwtable
define dso_local i32 @main() #0 {
  %1 = alloca i32, align 4
  %2 = alloca [100 x double], align 16
  %3 = alloca [100 x i32], align 16
  %4 = alloca i32, align 4
  %5 = alloca i32, align 4
  %6 = alloca i32, align 4
  %7 = alloca i32, align 4
  %8 = alloca double, align 8
  %9 = alloca i32, align 4
  store i32 0, i32* %1, align 4
  %10 = call i32 (i8*, ...) @__isoc99_scanf(i8* getelementptr inbounds ([4 x i8], [4 x i8]* @.str, i64 0, i64 0), i32* %4)
  store i32 1, i32* %5, align 4
  br label %11

11:                                               ; preds = %20, %0
  %12 = load i32, i32* %5, align 4
  %13 = load i32, i32* %4, align 4
  %14 = icmp sle i32 %12, %13
  br i1 %14, label %15, label %23

15:                                               ; preds = %11
  %16 = load i32, i32* %5, align 4
  %17 = sext i32 %16 to i64
  %18 = getelementptr inbounds [100 x i32], [100 x i32]* %3, i64 0, i64 %17
  %19 = call i32 (i8*, ...) @__isoc99_scanf(i8* getelementptr inbounds ([3 x i8], [3 x i8]* @.str.1, i64 0, i64 0), i32* %18)
  br label %20

20:                                               ; preds = %15
  %21 = load i32, i32* %5, align 4
  %22 = add nsw i32 %21, 1
  store i32 %22, i32* %5, align 4
  br label %11

23:                                               ; preds = %11
  store i32 1, i32* %6, align 4
  br label %24

24:                                               ; preds = %84, %23
  %25 = load i32, i32* %6, align 4
  %26 = load i32, i32* %4, align 4
  %27 = icmp sle i32 %25, %26
  br i1 %27, label %28, label %87

28:                                               ; preds = %24
  %29 = getelementptr inbounds [100 x double], [100 x double]* %2, i64 0, i64 1
  store double 1.000000e+00, double* %29, align 8
  %30 = getelementptr inbounds [100 x double], [100 x double]* %2, i64 0, i64 2
  store double 2.000000e+00, double* %30, align 16
  store i32 3, i32* %7, align 4
  br label %31

31:                                               ; preds = %54, %28
  %32 = load i32, i32* %7, align 4
  %33 = load i32, i32* %6, align 4
  %34 = sext i32 %33 to i64
  %35 = getelementptr inbounds [100 x i32], [100 x i32]* %3, i64 0, i64 %34
  %36 = load i32, i32* %35, align 4
  %37 = add nsw i32 %36, 1
  %38 = icmp sle i32 %32, %37
  br i1 %38, label %39, label %57

39:                                               ; preds = %31
  %40 = load i32, i32* %7, align 4
  %41 = sub nsw i32 %40, 1
  %42 = sext i32 %41 to i64
  %43 = getelementptr inbounds [100 x double], [100 x double]* %2, i64 0, i64 %42
  %44 = load double, double* %43, align 8
  %45 = load i32, i32* %7, align 4
  %46 = sub nsw i32 %45, 2
  %47 = sext i32 %46 to i64
  %48 = getelementptr inbounds [100 x double], [100 x double]* %2, i64 0, i64 %47
  %49 = load double, double* %48, align 8
  %50 = fadd double %44, %49
  %51 = load i32, i32* %7, align 4
  %52 = sext i32 %51 to i64
  %53 = getelementptr inbounds [100 x double], [100 x double]* %2, i64 0, i64 %52
  store double %50, double* %53, align 8
  br label %54

54:                                               ; preds = %39
  %55 = load i32, i32* %7, align 4
  %56 = add nsw i32 %55, 1
  store i32 %56, i32* %7, align 4
  br label %31

57:                                               ; preds = %31
  store double 0.000000e+00, double* %8, align 8
  store i32 1, i32* %9, align 4
  br label %58

58:                                               ; preds = %78, %57
  %59 = load i32, i32* %9, align 4
  %60 = load i32, i32* %6, align 4
  %61 = sext i32 %60 to i64
  %62 = getelementptr inbounds [100 x i32], [100 x i32]* %3, i64 0, i64 %61
  %63 = load i32, i32* %62, align 4
  %64 = icmp sle i32 %59, %63
  br i1 %64, label %65, label %81

65:                                               ; preds = %58
  %66 = load double, double* %8, align 8
  %67 = load i32, i32* %9, align 4
  %68 = add nsw i32 %67, 1
  %69 = sext i32 %68 to i64
  %70 = getelementptr inbounds [100 x double], [100 x double]* %2, i64 0, i64 %69
  %71 = load double, double* %70, align 8
  %72 = load i32, i32* %9, align 4
  %73 = sext i32 %72 to i64
  %74 = getelementptr inbounds [100 x double], [100 x double]* %2, i64 0, i64 %73
  %75 = load double, double* %74, align 8
  %76 = fdiv double %71, %75
  %77 = fadd double %66, %76
  store double %77, double* %8, align 8
  br label %78

78:                                               ; preds = %65
  %79 = load i32, i32* %9, align 4
  %80 = add nsw i32 %79, 1
  store i32 %80, i32* %9, align 4
  br label %58

81:                                               ; preds = %58
  %82 = load double, double* %8, align 8
  %83 = call i32 (i8*, ...) @printf(i8* getelementptr inbounds ([6 x i8], [6 x i8]* @.str.2, i64 0, i64 0), double %82)
  br label %84

84:                                               ; preds = %81
  %85 = load i32, i32* %6, align 4
  %86 = add nsw i32 %85, 1
  store i32 %86, i32* %6, align 4
  br label %24

87:                                               ; preds = %24
  ret i32 0
}

declare dso_local i32 @__isoc99_scanf(i8*, ...) #1

declare dso_local i32 @printf(i8*, ...) #1


!llvm.module.flags = !{!0}
!llvm.ident = !{!1}

!0 = !{i32 1, !"wchar_size", i32 4}
!1 = !{!"clang version 10.0.0-4ubuntu1 "}
